target datalayout = "e-m:e-p270:32:32-p271:32:32-p272:64:64-i64:64-i128:128-f80:128-n8:16:32:64-S128"
target triple = "x86_64-unknown-linux-gnu"

; Function Attrs: inlinehint mustprogress nounwind uwtable
define internal void @_ZN8QuantLib12_GLOBAL__N_122AverageBMACouponPricerD0Ev(ptr noundef nonnull align 8 dereferenceable(16) %this) unnamed_addr #5 align 2 {
entry:
  %this.addr = alloca ptr, align 8
  store ptr %this, ptr %this.addr, align 8, !tbaa !3
  %this1 = load ptr, ptr %this.addr, align 8
  call void @_ZN8QuantLib12_GLOBAL__N_122AverageBMACouponPricerD1Ev(ptr noundef nonnull align 8 dereferenceable(16) %this1) #16
  call void @_ZdlPvm(ptr noundef %this1, i64 noundef 128) #26
  ret void
}

; Function Attrs: inlinehint nounwind uwtable
define internal void @_ZTv0_n24_N8QuantLib12_GLOBAL__N_122AverageBMACouponPricerD0Ev(ptr noundef %this) unnamed_addr #15 align 2 {
entry:
  %this.addr = alloca ptr, align 8
  store ptr %this, ptr %this.addr, align 8, !tbaa !3
  %this1 = load ptr, ptr %this.addr, align 8
  %vtable = load ptr, ptr %this1, align 8, !tbaa !20
  %0 = getelementptr inbounds i8, ptr %vtable, i64 -24
  %1 = load i64, ptr %0, align 8
  %2 = getelementptr inbounds i8, ptr %this1, i64 %1
  tail call void @_ZN8QuantLib12_GLOBAL__N_122AverageBMACouponPricerD0Ev(ptr noundef nonnull align 8 dereferenceable(16) %2) #16
  ret void
}